target datalayout = "e-m:e-p270:32:32-p271:32:32-p272:64:64-i64:64-i128:128-f80:128-n8:16:32:64-S128"
target triple = "x86_64-pc-linux-gnu"

%struct.Vec_Ptr_t_ = type { i32, i32, ptr }

@.str.5 = private unnamed_addr constant [30 x i8] c"Found %d constant registers.\0A\00", align 1
@.str.6 = private unnamed_addr constant [33 x i8] c"Found %d non-ternary registers.\0A\00", align 1

; Function Attrs: nounwind uwtable
define internal void @Vec_PtrGrow(ptr noundef %0, i32 noundef %1) #0 {
  %3 = alloca ptr, align 8
  %4 = alloca i32, align 4
  store ptr %0, ptr %3, align 8
  store i32 %1, ptr %4, align 4
  %5 = load ptr, ptr %3, align 8
  %6 = getelementptr inbounds %struct.Vec_Ptr_t_, ptr %5, i32 0, i32 0
  %7 = load i32, ptr %6, align 8
  %8 = load i32, ptr %4, align 4
  %9 = icmp sge i32 %7, %8
  br i1 %9, label %10, label %11

10:                                               ; preds = %2
  br label %36

11:                                               ; preds = %2
  %12 = load ptr, ptr %3, align 8
  %13 = getelementptr inbounds %struct.Vec_Ptr_t_, ptr %12, i32 0, i32 2
  %14 = load ptr, ptr %13, align 8
  %15 = icmp ne ptr %14, null
  br i1 %15, label %16, label %24

16:                                               ; preds = %11
  %17 = load ptr, ptr %3, align 8
  %18 = getelementptr inbounds %struct.Vec_Ptr_t_, ptr %17, i32 0, i32 2
  %19 = load ptr, ptr %18, align 8
  %20 = load i32, ptr %4, align 4
  %21 = sext i32 %20 to i64
  %22 = mul i64 8, %21
  %23 = call ptr @realloc(ptr noundef %19, i64 noundef %22) #13
  br label %29

24:                                               ; preds = %11
  %25 = load i32, ptr %4, align 4
  %26 = sext i32 %25 to i64
  %27 = mul i64 8, %26
  %28 = call noalias ptr @malloc(i64 noundef %27) #10
  br label %29

29:                                               ; preds = %24, %16
  %30 = phi ptr [ %23, %16 ], [ %28, %24 ]
  %31 = load ptr, ptr %3, align 8
  %32 = getelementptr inbounds %struct.Vec_Ptr_t_, ptr %31, i32 0, i32 2
  store ptr %30, ptr %32, align 8
  %33 = load i32, ptr %4, align 4
  %34 = load ptr, ptr %3, align 8
  %35 = getelementptr inbounds %struct.Vec_Ptr_t_, ptr %34, i32 0, i32 0
  store i32 %33, ptr %35, align 8
  br label %36

36:                                               ; preds = %29, %10
  ret void
}

; Function Attrs: nounwind uwtable
define internal void @Vec_PtrPush(ptr noundef %0, ptr noundef %1) #0 {
  %3 = alloca ptr, align 8
  %4 = alloca ptr, align 8
  store ptr %0, ptr %3, align 8
  store ptr %1, ptr %4, align 8
  %5 = load ptr, ptr %3, align 8
  %6 = getelementptr inbounds %struct.Vec_Ptr_t_, ptr %5, i32 0, i32 1
  %7 = load i32, ptr %6, align 4
  %8 = load ptr, ptr %3, align 8
  %9 = getelementptr inbounds %struct.Vec_Ptr_t_, ptr %8, i32 0, i32 0
  %10 = load i32, ptr %9, align 8
  %11 = icmp eq i32 %7, %10
  br i1 %11, label %12, label %26

12:                                               ; preds = %2
  %13 = load ptr, ptr %3, align 8
  %14 = getelementptr inbounds %struct.Vec_Ptr_t_, ptr %13, i32 0, i32 0
  %15 = load i32, ptr %14, align 8
  %16 = icmp slt i32 %15, 16
  br i1 %16, label %17, label %19

17:                                               ; preds = %12
  %18 = load ptr, ptr %3, align 8
  call void @Vec_PtrGrow(ptr noundef %18, i32 noundef 16)
  br label %25

19:                                               ; preds = %12
  %20 = load ptr, ptr %3, align 8
  %21 = load ptr, ptr %3, align 8
  %22 = getelementptr inbounds %struct.Vec_Ptr_t_, ptr %21, i32 0, i32 0
  %23 = load i32, ptr %22, align 8
  %24 = mul nsw i32 2, %23
  call void @Vec_PtrGrow(ptr noundef %20, i32 noundef %24)
  br label %25

25:                                               ; preds = %19, %17
  br label %26

26:                                               ; preds = %25, %2
  %27 = load ptr, ptr %4, align 8
  %28 = load ptr, ptr %3, align 8
  %29 = getelementptr inbounds %struct.Vec_Ptr_t_, ptr %28, i32 0, i32 2
  %30 = load ptr, ptr %29, align 8
  %31 = load ptr, ptr %3, align 8
  %32 = getelementptr inbounds %struct.Vec_Ptr_t_, ptr %31, i32 0, i32 1
  %33 = load i32, ptr %32, align 4
  %34 = add nsw i32 %33, 1
  store i32 %34, ptr %32, align 4
  %35 = sext i32 %33 to i64
  %36 = getelementptr inbounds ptr, ptr %30, i64 %35
  store ptr %27, ptr %36, align 8
  ret void
}

; Function Attrs: nounwind uwtable
define internal i32 @Gia_ManTerSimInfoGet(ptr noundef %0, i32 noundef %1) #0 {
  %3 = alloca ptr, align 8
  %4 = alloca i32, align 4
  store ptr %0, ptr %3, align 8
  store i32 %1, ptr %4, align 4
  %5 = load ptr, ptr %3, align 8
  %6 = load i32, ptr %4, align 4
  %7 = ashr i32 %6, 4
  %8 = sext i32 %7 to i64
  %9 = getelementptr inbounds i32, ptr %5, i64 %8
  %10 = load i32, ptr %9, align 4
  %11 = load i32, ptr %4, align 4
  %12 = and i32 %11, 15
  %13 = shl i32 %12, 1
  %14 = lshr i32 %10, %13
  %15 = and i32 3, %14
  ret i32 %15
}

; Function Attrs: nounwind uwtable
define internal ptr @Vec_PtrEntry(ptr noundef %0, i32 noundef %1) #0 {
  %3 = alloca ptr, align 8
  %4 = alloca i32, align 4
  store ptr %0, ptr %3, align 8
  store i32 %1, ptr %4, align 4
  %5 = load ptr, ptr %3, align 8
  %6 = getelementptr inbounds %struct.Vec_Ptr_t_, ptr %5, i32 0, i32 2
  %7 = load ptr, ptr %6, align 8
  %8 = load i32, ptr %4, align 4
  %9 = sext i32 %8 to i64
  %10 = getelementptr inbounds ptr, ptr %7, i64 %9
  %11 = load ptr, ptr %10, align 8
  ret ptr %11
}

; Function Attrs: nounwind uwtable
define internal i32 @Vec_PtrSize(ptr noundef %0) #0 {
  %2 = alloca ptr, align 8
  store ptr %0, ptr %2, align 8
  %3 = load ptr, ptr %2, align 8
  %4 = getelementptr inbounds %struct.Vec_Ptr_t_, ptr %3, i32 0, i32 1
  %5 = load i32, ptr %4, align 4
  ret i32 %5
}

; Function Attrs: nounwind uwtable
define internal i32 @Abc_BitWordNum(i32 noundef %0) #0 {
  %2 = alloca i32, align 4
  store i32 %0, ptr %2, align 4
  %3 = load i32, ptr %2, align 4
  %4 = ashr i32 %3, 5
  %5 = load i32, ptr %2, align 4
  %6 = and i32 %5, 31
  %7 = icmp sgt i32 %6, 0
  %8 = zext i1 %7 to i32
  %9 = add nsw i32 %4, %8
  ret i32 %9
}

; Function Attrs: nounwind uwtable
define internal ptr @Vec_PtrPop(ptr noundef %0) #0 {
  %2 = alloca ptr, align 8
  store ptr %0, ptr %2, align 8
  %3 = load ptr, ptr %2, align 8
  %4 = getelementptr inbounds %struct.Vec_Ptr_t_, ptr %3, i32 0, i32 2
  %5 = load ptr, ptr %4, align 8
  %6 = load ptr, ptr %2, align 8
  %7 = getelementptr inbounds %struct.Vec_Ptr_t_, ptr %6, i32 0, i32 1
  %8 = load i32, ptr %7, align 4
  %9 = add nsw i32 %8, -1
  store i32 %9, ptr %7, align 4
  %10 = sext i32 %9 to i64
  %11 = getelementptr inbounds ptr, ptr %5, i64 %10
  %12 = load ptr, ptr %11, align 8
  ret ptr %12
}

; Function Attrs: nounwind uwtable
define void @Gia_ManTerAnalyze2(ptr noundef %0, i32 noundef %1) #0 {
  %3 = alloca ptr, align 8
  %4 = alloca i32, align 4
  %5 = alloca ptr, align 8
  %6 = alloca ptr, align 8
  %7 = alloca i32, align 4
  %8 = alloca i32, align 4
  %9 = alloca i32, align 4
  %10 = alloca i32, align 4
  %11 = alloca i32, align 4
  store ptr %0, ptr %3, align 8
  store i32 %1, ptr %4, align 4
  %12 = load ptr, ptr %3, align 8
  %13 = call ptr @Vec_PtrPop(ptr noundef %12)
  store ptr %13, ptr %6, align 8
  %14 = load i32, ptr %4, align 4
  %15 = mul nsw i32 2, %14
  %16 = call i32 @Abc_BitWordNum(i32 noundef %15)
  store i32 %16, ptr %11, align 4
  %17 = load ptr, ptr %6, align 8
  %18 = load i32, ptr %11, align 4
  %19 = sext i32 %18 to i64
  %20 = mul i64 4, %19
  call void @llvm.memset.p0.i64(ptr align 4 %17, i8 0, i64 %20, i1 false)
  store i32 0, ptr %7, align 4
  br label %21

21:                                               ; preds = %53, %2
  %22 = load i32, ptr %7, align 4
  %23 = load ptr, ptr %3, align 8
  %24 = call i32 @Vec_PtrSize(ptr noundef %23)
  %25 = icmp slt i32 %22, %24
  br i1 %25, label %26, label %30

26:                                               ; preds = %21
  %27 = load ptr, ptr %3, align 8
  %28 = load i32, ptr %7, align 4
  %29 = call ptr @Vec_PtrEntry(ptr noundef %27, i32 noundef %28)
  store ptr %29, ptr %5, align 8
  br label %30

30:                                               ; preds = %26, %21
  %31 = phi i1 [ false, %21 ], [ true, %26 ]
  br i1 %31, label %32, label %56

32:                                               ; preds = %30
  store i32 0, ptr %8, align 4
  br label %33

33:                                               ; preds = %49, %32
  %34 = load i32, ptr %8, align 4
  %35 = load i32, ptr %11, align 4
  %36 = icmp slt i32 %34, %35
  br i1 %36, label %37, label %52

37:                                               ; preds = %33
  %38 = load ptr, ptr %5, align 8
  %39 = load i32, ptr %8, align 4
  %40 = sext i32 %39 to i64
  %41 = getelementptr inbounds i32, ptr %38, i64 %40
  %42 = load i32, ptr %41, align 4
  %43 = load ptr, ptr %6, align 8
  %44 = load i32, ptr %8, align 4
  %45 = sext i32 %44 to i64
  %46 = getelementptr inbounds i32, ptr %43, i64 %45
  %47 = load i32, ptr %46, align 4
  %48 = or i32 %47, %42
  store i32 %48, ptr %46, align 4
  br label %49

49:                                               ; preds = %37
  %50 = load i32, ptr %8, align 4
  %51 = add nsw i32 %50, 1
  store i32 %51, ptr %8, align 4
  br label %33, !llvm.loop !17

52:                                               ; preds = %33
  br label %53

53:                                               ; preds = %52
  %54 = load i32, ptr %7, align 4
  %55 = add nsw i32 %54, 1
  store i32 %55, ptr %7, align 4
  br label %21, !llvm.loop !18

56:                                               ; preds = %30
  store i32 0, ptr %9, align 4
  store i32 0, ptr %7, align 4
  br label %57

57:                                               ; preds = %70, %56
  %58 = load i32, ptr %7, align 4
  %59 = load i32, ptr %4, align 4
  %60 = icmp slt i32 %58, %59
  br i1 %60, label %61, label %73

61:                                               ; preds = %57
  %62 = load ptr, ptr %6, align 8
  %63 = load i32, ptr %7, align 4
  %64 = call i32 @Gia_ManTerSimInfoGet(ptr noundef %62, i32 noundef %63)
  %65 = icmp eq i32 %64, 1
  br i1 %65, label %66, label %69

66:                                               ; preds = %61
  %67 = load i32, ptr %9, align 4
  %68 = add nsw i32 %67, 1
  store i32 %68, ptr %9, align 4
  br label %69

69:                                               ; preds = %66, %61
  br label %70

70:                                               ; preds = %69
  %71 = load i32, ptr %7, align 4
  %72 = add nsw i32 %71, 1
  store i32 %72, ptr %7, align 4
  br label %57, !llvm.loop !19

73:                                               ; preds = %57
  %74 = load i32, ptr %9, align 4
  %75 = call i32 (ptr, ...) @printf(ptr noundef @.str.5, i32 noundef %74)
  %76 = load ptr, ptr %6, align 8
  %77 = load i32, ptr %11, align 4
  %78 = sext i32 %77 to i64
  %79 = mul i64 4, %78
  call void @llvm.memset.p0.i64(ptr align 4 %76, i8 0, i64 %79, i1 false)
  store i32 0, ptr %7, align 4
  br label %80

80:                                               ; preds = %121, %73
  %81 = load i32, ptr %7, align 4
  %82 = load ptr, ptr %3, align 8
  %83 = call i32 @Vec_PtrSize(ptr noundef %82)
  %84 = icmp slt i32 %81, %83
  br i1 %84, label %85, label %89

85:                                               ; preds = %80
  %86 = load ptr, ptr %3, align 8
  %87 = load i32, ptr %7, align 4
  %88 = call ptr @Vec_PtrEntry(ptr noundef %86, i32 noundef %87)
  store ptr %88, ptr %5, align 8
  br label %89

89:                                               ; preds = %85, %80
  %90 = phi i1 [ false, %80 ], [ true, %85 ]
  br i1 %90, label %91, label %124

91:                                               ; preds = %89
  store i32 0, ptr %8, align 4
  br label %92

92:                                               ; preds = %117, %91
  %93 = load i32, ptr %8, align 4
  %94 = load i32, ptr %11, align 4
  %95 = icmp slt i32 %93, %94
  br i1 %95, label %96, label %120

96:                                               ; preds = %92
  %97 = load ptr, ptr %5, align 8
  %98 = load i32, ptr %8, align 4
  %99 = sext i32 %98 to i64
  %100 = getelementptr inbounds i32, ptr %97, i64 %99
  %101 = load i32, ptr %100, align 4
  %102 = load ptr, ptr %5, align 8
  %103 = load i32, ptr %8, align 4
  %104 = sext i32 %103 to i64
  %105 = getelementptr inbounds i32, ptr %102, i64 %104
  %106 = load i32, ptr %105, align 4
  %107 = lshr i32 %106, 1
  %108 = xor i32 %101, %107
  %109 = xor i32 %108, -1
  %110 = and i32 %109, 1431655765
  %111 = load ptr, ptr %6, align 8
  %112 = load i32, ptr %8, align 4
  %113 = sext i32 %112 to i64
  %114 = getelementptr inbounds i32, ptr %111, i64 %113
  %115 = load i32, ptr %114, align 4
  %116 = or i32 %115, %110
  store i32 %116, ptr %114, align 4
  br label %117

117:                                              ; preds = %96
  %118 = load i32, ptr %8, align 4
  %119 = add nsw i32 %118, 1
  store i32 %119, ptr %8, align 4
  br label %92, !llvm.loop !20

120:                                              ; preds = %92
  br label %121

121:                                              ; preds = %120
  %122 = load i32, ptr %7, align 4
  %123 = add nsw i32 %122, 1
  store i32 %123, ptr %7, align 4
  br label %80, !llvm.loop !21

124:                                              ; preds = %89
  store i32 0, ptr %10, align 4
  store i32 0, ptr %7, align 4
  br label %125

125:                                              ; preds = %138, %124
  %126 = load i32, ptr %7, align 4
  %127 = load i32, ptr %4, align 4
  %128 = icmp slt i32 %126, %127
  br i1 %128, label %129, label %141

129:                                              ; preds = %125
  %130 = load ptr, ptr %6, align 8
  %131 = load i32, ptr %7, align 4
  %132 = call i32 @Gia_ManTerSimInfoGet(ptr noundef %130, i32 noundef %131)
  %133 = icmp eq i32 %132, 0
  br i1 %133, label %134, label %137

134:                                              ; preds = %129
  %135 = load i32, ptr %10, align 4
  %136 = add nsw i32 %135, 1
  store i32 %136, ptr %10, align 4
  br label %137

137:                                              ; preds = %134, %129
  br label %138

138:                                              ; preds = %137
  %139 = load i32, ptr %7, align 4
  %140 = add nsw i32 %139, 1
  store i32 %140, ptr %7, align 4
  br label %125, !llvm.loop !22

141:                                              ; preds = %125
  %142 = load i32, ptr %10, align 4
  %143 = call i32 (ptr, ...) @printf(ptr noundef @.str.6, i32 noundef %142)
  %144 = load ptr, ptr %3, align 8
  %145 = load ptr, ptr %6, align 8
  call void @Vec_PtrPush(ptr noundef %144, ptr noundef %145)
  ret void
}