; Function Attrs: nounwind uwtable
define void @Gia_ManTerAnalyze2(ptr noundef captures(none) %0, i32 noundef %1) local_unnamed_addr #0 {
  %3 = getelementptr inbounds nuw i8, ptr %0, i64 8
  %4 = load ptr, ptr %3, align 8
  %5 = getelementptr inbounds nuw i8, ptr %0, i64 4
  %6 = load i32, ptr %5, align 4
  %7 = add nsw i32 %6, -1
  store i32 %7, ptr %5, align 4
  %8 = sext i32 %7 to i64
  %9 = getelementptr inbounds ptr, ptr %4, i64 %8
  %10 = load ptr, ptr %9, align 8
  %11 = ashr i32 %1, 4
  %12 = and i32 %1, 15
  %13 = icmp ne i32 %12, 0
  %14 = zext i1 %13 to i32
  %15 = add nsw i32 %11, %14
  %16 = sext i32 %15 to i64
  %17 = shl nsw i64 %16, 2
  tail call void @llvm.memset.p0.i64(ptr align 4 %10, i8 0, i64 %17, i1 false)
  %.val5761 = load i32, ptr %5, align 4
  %18 = icmp sgt i32 %.val5761, 0
  %19 = icmp sgt i32 %15, 0
  %or.cond = select i1 %18, i1 %19, i1 false
  br i1 %or.cond, label %.lr.ph.us.preheader, label %.critedge.preheader

.lr.ph.us.preheader:                              ; preds = %2
  %wide.trip.count = zext nneg i32 %15 to i64
  br label %.lr.ph.us

.lr.ph.us:                                        ; preds = %.lr.ph.us.preheader, %._crit_edge.us
  %indvars.iv83 = phi i64 [ 0, %.lr.ph.us.preheader ], [ %indvars.iv.next84, %._crit_edge.us ]
  %.val59.us = load ptr, ptr %3, align 8
  %20 = getelementptr inbounds nuw ptr, ptr %.val59.us, i64 %indvars.iv83
  %21 = load ptr, ptr %20, align 8
  br label %22

22:                                               ; preds = %.lr.ph.us, %22
  %indvars.iv = phi i64 [ 0, %.lr.ph.us ], [ %indvars.iv.next, %22 ]
  %23 = getelementptr inbounds nuw i32, ptr %21, i64 %indvars.iv
  %24 = load i32, ptr %23, align 4
  %25 = getelementptr inbounds nuw i32, ptr %10, i64 %indvars.iv
  %26 = load i32, ptr %25, align 4
  %27 = or i32 %26, %24
  store i32 %27, ptr %25, align 4
  %indvars.iv.next = add nuw nsw i64 %indvars.iv, 1
  %exitcond.not = icmp eq i64 %indvars.iv.next, %wide.trip.count
  br i1 %exitcond.not, label %._crit_edge.us, label %22, !llvm.loop !17

._crit_edge.us:                                   ; preds = %22
  %indvars.iv.next84 = add nuw nsw i64 %indvars.iv83, 1
  %.val57.us = load i32, ptr %5, align 4
  %28 = sext i32 %.val57.us to i64
  %29 = icmp slt i64 %indvars.iv.next84, %28
  br i1 %29, label %.lr.ph.us, label %.critedge.preheader, !llvm.loop !18

.critedge.preheader:                              ; preds = %._crit_edge.us, %2
  %30 = icmp sgt i32 %1, 0
  br i1 %30, label %.critedge, label %.critedge._crit_edge

.critedge:                                        ; preds = %.critedge.preheader, %.critedge
  %.04966 = phi i32 [ %spec.select, %.critedge ], [ 0, %.critedge.preheader ]
  %.15465 = phi i32 [ %41, %.critedge ], [ 0, %.critedge.preheader ]
  %31 = lshr i32 %.15465, 4
  %32 = zext nneg i32 %31 to i64
  %33 = getelementptr inbounds nuw i32, ptr %10, i64 %32
  %34 = load i32, ptr %33, align 4
  %35 = shl nuw i32 %.15465, 1
  %36 = and i32 %35, 30
  %37 = lshr i32 %34, %36
  %38 = and i32 %37, 3
  %39 = icmp eq i32 %38, 1
  %40 = zext i1 %39 to i32
  %spec.select = add nuw nsw i32 %.04966, %40
  %41 = add nuw nsw i32 %.15465, 1
  %exitcond86.not = icmp eq i32 %41, %1
  br i1 %exitcond86.not, label %.critedge._crit_edge, label %.critedge, !llvm.loop !19

.critedge._crit_edge:                             ; preds = %.critedge, %.critedge.preheader
  %.049.lcssa = phi i32 [ 0, %.critedge.preheader ], [ %spec.select, %.critedge ]
  %42 = tail call i32 (ptr, ...) @printf(ptr noundef nonnull dereferenceable(1) @.str.5, i32 noundef %.049.lcssa)
  tail call void @llvm.memset.p0.i64(ptr align 4 %10, i8 0, i64 %17, i1 false)
  %.val69 = load i32, ptr %5, align 4
  %43 = icmp sgt i32 %.val69, 0
  %44 = icmp sgt i32 %15, 0
  %or.cond96 = select i1 %43, i1 %44, i1 false
  br i1 %or.cond96, label %.lr.ph68.us.preheader, label %.critedge2.preheader

.lr.ph68.us.preheader:                            ; preds = %.critedge._crit_edge
  %wide.trip.count90 = zext nneg i32 %15 to i64
  br label %.lr.ph68.us

.lr.ph68.us:                                      ; preds = %.lr.ph68.us.preheader, %._crit_edge.us73
  %indvars.iv92 = phi i64 [ 0, %.lr.ph68.us.preheader ], [ %indvars.iv.next93, %._crit_edge.us73 ]
  %.val58.us = load ptr, ptr %3, align 8
  %45 = getelementptr inbounds nuw ptr, ptr %.val58.us, i64 %indvars.iv92
  %46 = load ptr, ptr %45, align 8
  br label %47

47:                                               ; preds = %.lr.ph68.us, %47
  %indvars.iv87 = phi i64 [ 0, %.lr.ph68.us ], [ %indvars.iv.next88, %47 ]
  %48 = getelementptr inbounds nuw i32, ptr %46, i64 %indvars.iv87
  %49 = load i32, ptr %48, align 4
  %50 = lshr i32 %49, 1
  %51 = xor i32 %50, %49
  %52 = and i32 %51, 1431655765
  %53 = xor i32 %52, 1431655765
  %54 = getelementptr inbounds nuw i32, ptr %10, i64 %indvars.iv87
  %55 = load i32, ptr %54, align 4
  %56 = or i32 %53, %55
  store i32 %56, ptr %54, align 4
  %indvars.iv.next88 = add nuw nsw i64 %indvars.iv87, 1
  %exitcond91.not = icmp eq i64 %indvars.iv.next88, %wide.trip.count90
  br i1 %exitcond91.not, label %._crit_edge.us73, label %47, !llvm.loop !20

._crit_edge.us73:                                 ; preds = %47
  %indvars.iv.next93 = add nuw nsw i64 %indvars.iv92, 1
  %.val.us = load i32, ptr %5, align 4
  %57 = sext i32 %.val.us to i64
  %58 = icmp slt i64 %indvars.iv.next93, %57
  br i1 %58, label %.lr.ph68.us, label %.critedge2.preheader, !llvm.loop !21

.critedge2.preheader:                             ; preds = %._crit_edge.us73, %.critedge._crit_edge
  br i1 %30, label %.critedge2, label %.critedge2._crit_edge

.critedge2:                                       ; preds = %.critedge2.preheader, %.critedge2
  %.075 = phi i32 [ %spec.select56, %.critedge2 ], [ 0, %.critedge2.preheader ]
  %.374 = phi i32 [ %69, %.critedge2 ], [ 0, %.critedge2.preheader ]
  %59 = lshr i32 %.374, 4
  %60 = zext nneg i32 %59 to i64
  %61 = getelementptr inbounds nuw i32, ptr %10, i64 %60
  %62 = load i32, ptr %61, align 4
  %63 = shl nuw i32 %.374, 1
  %64 = and i32 %63, 30
  %65 = shl nuw i32 3, %64
  %66 = and i32 %62, %65
  %67 = icmp eq i32 %66, 0
  %68 = zext i1 %67 to i32
  %spec.select56 = add nuw nsw i32 %.075, %68
  %69 = add nuw nsw i32 %.374, 1
  %exitcond95.not = icmp eq i32 %69, %1
  br i1 %exitcond95.not, label %.critedge2._crit_edge, label %.critedge2, !llvm.loop !22

.critedge2._crit_edge:                            ; preds = %.critedge2, %.critedge2.preheader
  %.0.lcssa = phi i32 [ 0, %.critedge2.preheader ], [ %spec.select56, %.critedge2 ]
  %70 = tail call i32 (ptr, ...) @printf(ptr noundef nonnull dereferenceable(1) @.str.6, i32 noundef %.0.lcssa)
  %71 = load i32, ptr %5, align 4
  %72 = load i32, ptr %0, align 8
  %73 = icmp eq i32 %71, %72
  br i1 %73, label %74, label %.Vec_PtrGrow.exit11_crit_edge.i

.Vec_PtrGrow.exit11_crit_edge.i:                  ; preds = %.critedge2._crit_edge
  %.pre.i = load ptr, ptr %3, align 8
  br label %Vec_PtrPush.exit

74:                                               ; preds = %.critedge2._crit_edge
  %75 = icmp slt i32 %71, 16
  br i1 %75, label %76, label %83

76:                                               ; preds = %74
  %77 = load ptr, ptr %3, align 8
  %.not9.i.i = icmp eq ptr %77, null
  br i1 %.not9.i.i, label %80, label %78

78:                                               ; preds = %76
  %79 = tail call dereferenceable_or_null(128) ptr @realloc(ptr noundef nonnull %77, i64 noundef 128) #24
  br label %Vec_PtrGrow.exit.i

80:                                               ; preds = %76
  %81 = tail call noalias dereferenceable_or_null(128) ptr @malloc(i64 noundef 128) #23
  br label %Vec_PtrGrow.exit.i

Vec_PtrGrow.exit.i:                               ; preds = %80, %78
  %82 = phi ptr [ %79, %78 ], [ %81, %80 ]
  store ptr %82, ptr %3, align 8
  store i32 16, ptr %0, align 8
  br label %Vec_PtrPush.exit

83:                                               ; preds = %74
  %84 = shl nuw nsw i32 %71, 1
  %85 = load ptr, ptr %3, align 8
  %.not9.i10.i = icmp eq ptr %85, null
  %86 = zext nneg i32 %84 to i64
  %87 = shl nuw nsw i64 %86, 3
  br i1 %.not9.i10.i, label %90, label %88

88:                                               ; preds = %83
  %89 = tail call ptr @realloc(ptr noundef nonnull %85, i64 noundef %87) #24
  br label %92

90:                                               ; preds = %83
  %91 = tail call noalias ptr @malloc(i64 noundef %87) #23
  br label %92

92:                                               ; preds = %90, %88
  %93 = phi ptr [ %89, %88 ], [ %91, %90 ]
  store ptr %93, ptr %3, align 8
  store i32 %84, ptr %0, align 8
  br label %Vec_PtrPush.exit

Vec_PtrPush.exit:                                 ; preds = %.Vec_PtrGrow.exit11_crit_edge.i, %Vec_PtrGrow.exit.i, %92
  %94 = phi ptr [ %.pre.i, %.Vec_PtrGrow.exit11_crit_edge.i ], [ %93, %92 ], [ %82, %Vec_PtrGrow.exit.i ]
  %95 = load i32, ptr %5, align 4
  %96 = add nsw i32 %95, 1
  store i32 %96, ptr %5, align 4
  %97 = sext i32 %95 to i64
  %98 = getelementptr inbounds ptr, ptr %94, i64 %97
  store ptr %10, ptr %98, align 8
  ret void
}